; Function Attrs: nofree norecurse nosync nounwind memory(argmem: readwrite) uwtable
define internal void @SDL_Convert41To21(ptr noundef writeonly captures(none) %0, ptr noundef readonly captures(none) %1, i32 noundef %2) #5 {
  %.not18 = icmp eq i32 %2, 0
  br i1 %.not18, label %._crit_edge, label %.lr.ph

.lr.ph:                                           ; preds = %3, %.lr.ph
  %.021 = phi ptr [ %23, %.lr.ph ], [ %0, %3 ]
  %.01620 = phi ptr [ %22, %.lr.ph ], [ %1, %3 ]
  %.01719 = phi i32 [ %21, %.lr.ph ], [ %2, %3 ]
  %4 = getelementptr inbounds nuw i8, ptr %.01620, i64 12
  %5 = load float, ptr %4, align 4
  %6 = getelementptr inbounds nuw i8, ptr %.01620, i64 16
  %7 = load float, ptr %6, align 4
  %8 = load float, ptr %.01620, align 4
  %9 = fmul float %5, 0x3FD6F9DB20000000
  %10 = tail call float @llvm.fmuladd.f32(float %8, float 0x3FDAF1AA00000000, float %9)
  %11 = tail call float @llvm.fmuladd.f32(float %7, float 0x3FCC28F5C0000000, float %10)
  store float %11, ptr %.021, align 4
  %12 = getelementptr inbounds nuw i8, ptr %.01620, i64 4
  %13 = load float, ptr %12, align 4
  %14 = fmul float %5, 0x3FCC28F5C0000000
  %15 = tail call float @llvm.fmuladd.f32(float %13, float 0x3FDAF1AA00000000, float %14)
  %16 = tail call float @llvm.fmuladd.f32(float %7, float 0x3FD6F9DB20000000, float %15)
  %17 = getelementptr inbounds nuw i8, ptr %.021, i64 4
  store float %16, ptr %17, align 4
  %18 = getelementptr inbounds nuw i8, ptr %.01620, i64 8
  %19 = load float, ptr %18, align 4
  %20 = getelementptr inbounds nuw i8, ptr %.021, i64 8
  store float %19, ptr %20, align 4
  %21 = add nsw i32 %.01719, -1
  %22 = getelementptr inbounds nuw i8, ptr %.01620, i64 20
  %23 = getelementptr inbounds nuw i8, ptr %.021, i64 12
  %.not = icmp eq i32 %21, 0
  br i1 %.not, label %._crit_edge, label %.lr.ph, !llvm.loop !80

._crit_edge:                                      ; preds = %.lr.ph, %3
  ret void
}